; Function Attrs: mustprogress nofree norecurse nosync nounwind willreturn memory(read, inaccessiblemem: none) uwtable
define dso_local noundef zeroext i1 @_ZNK11btMultiBody15isLinkKinematicEi(ptr nocapture noundef nonnull readonly align 8 dereferenceable(640) %this, i32 noundef %i) local_unnamed_addr #6 align 2 {
entry:
  %cmp = icmp eq i32 %i, -1
  br i1 %cmp, label %if.then, label %if.else

if.then:                                          ; preds = %entry
  %m_baseCollider.i.i = getelementptr inbounds i8, ptr %this, i64 8
  %0 = load ptr, ptr %m_baseCollider.i.i, align 8
  %tobool.not.i = icmp eq ptr %0, null
  br i1 %tobool.not.i, label %return, label %return.sink.split

if.else:                                          ; preds = %entry
  %m_data.i = getelementptr inbounds i8, ptr %this, i64 192
  %1 = load ptr, ptr %m_data.i, align 8
  %idxprom.i = sext i32 %i to i64
  %m_collider = getelementptr inbounds %struct.btMultibodyLink, ptr %1, i64 %idxprom.i, i32 22
  %2 = load ptr, ptr %m_collider, align 8
  %tobool.not = icmp eq ptr %2, null
  br i1 %tobool.not, label %return, label %return.sink.split

return.sink.split:                                ; preds = %if.else, %if.then
  %.sink = phi ptr [ %0, %if.then ], [ %2, %if.else ]
  %m_collisionFlags.i.i = getelementptr inbounds i8, ptr %.sink, i64 224
  %3 = load i32, ptr %m_collisionFlags.i.i, align 8
  %and.i.i = and i32 %3, 2
  %cmp.i.i = icmp ne i32 %and.i.i, 0
  br label %return

return:                                           ; preds = %return.sink.split, %if.then, %if.else
  %retval.0 = phi i1 [ false, %if.else ], [ false, %if.then ], [ %cmp.i.i, %return.sink.split ]
  ret i1 %retval.0
}